target datalayout = "e-m:e-p270:32:32-p271:32:32-p272:64:64-i64:64-i128:128-f80:128-n8:16:32:64-S128"
target triple = "x86_64-pc-linux-gnu"

@.str = private unnamed_addr constant [33 x i8] c"\0AERROR - %s line %d failed with:\00", align 1
@.str.1 = private unnamed_addr constant [105 x i8] c"generated/home/dtcxzyw/WorkSpace/Projects/compilers/llvm-opt-benchmark/bench/wolfssl/wolfssl/tests/api.c\00", align 1
@.str.2 = private unnamed_addr constant [16 x i8] c"\0A    expected: \00", align 1
@stdout = external global ptr, align 8
@.str.3 = private unnamed_addr constant [9 x i8] c"%s == %s\00", align 1
@.str.6 = private unnamed_addr constant [16 x i8] c"\0A    result:   \00", align 1
@.str.7 = private unnamed_addr constant [9 x i8] c"%d != %d\00", align 1
@.str.8 = private unnamed_addr constant [3 x i8] c"\0A\0A\00", align 1
@.str.1024 = private unnamed_addr constant [2 x i8] c"0\00", align 1
@.str.1805 = private unnamed_addr constant [24 x i8] c"./certs/ca-ecc-cert.pem\00", align 1
@.str.1806 = private unnamed_addr constant [23 x i8] c"./certs/server-ecc.der\00", align 1
@.str.1807 = private unnamed_addr constant [44 x i8] c"load_file(server_cert, &cert_buf, &cert_sz)\00", align 1
@.str.1808 = private unnamed_addr constant [55 x i8] c"verify_sig_cm(ca_cert, cert_buf, cert_sz, TESTING_ECC)\00", align 1
@.str.1809 = private unnamed_addr constant [20 x i8] c"(ASN_SIG_CONFIRM_E)\00", align 1

; Function Attrs: nounwind uwtable
define internal i32 @test_EccSigFailure_cm() #0 {
  %1 = alloca i32, align 4
  %2 = alloca i32, align 4
  %3 = alloca ptr, align 8
  %4 = alloca ptr, align 8
  %5 = alloca ptr, align 8
  %6 = alloca i64, align 8
  %7 = alloca i32, align 4
  %8 = alloca i32, align 4
  %9 = alloca i32, align 4
  %10 = alloca i32, align 4
  call void @llvm.lifetime.start.p0(i64 4, ptr %1) #14
  store i32 3, ptr %1, align 4, !tbaa !10
  call void @llvm.lifetime.start.p0(i64 4, ptr %2) #14
  store i32 0, ptr %2, align 4, !tbaa !10
  call void @llvm.lifetime.start.p0(i64 8, ptr %3) #14
  store ptr @.str.1805, ptr %3, align 8, !tbaa !32
  call void @llvm.lifetime.start.p0(i64 8, ptr %4) #14
  store ptr @.str.1806, ptr %4, align 8, !tbaa !32
  call void @llvm.lifetime.start.p0(i64 8, ptr %5) #14
  store ptr null, ptr %5, align 8, !tbaa !32
  call void @llvm.lifetime.start.p0(i64 8, ptr %6) #14
  store i64 0, ptr %6, align 8, !tbaa !72
  br label %11

11:                                               ; preds = %0
  %12 = load i32, ptr %1, align 4, !tbaa !10
  %13 = icmp eq i32 %12, 1
  br i1 %13, label %23, label %14

14:                                               ; preds = %11
  %15 = load i32, ptr %1, align 4, !tbaa !10
  %16 = icmp eq i32 %15, 3
  br i1 %16, label %23, label %17

17:                                               ; preds = %14
  %18 = load i32, ptr %1, align 4, !tbaa !10
  %19 = icmp eq i32 %18, 2
  br i1 %19, label %23, label %20

20:                                               ; preds = %17
  %21 = load i32, ptr %1, align 4, !tbaa !10
  %22 = icmp eq i32 %21, 4
  br i1 %22, label %23, label %84

23:                                               ; preds = %20, %17, %14, %11
  call void @llvm.lifetime.start.p0(i64 4, ptr %7) #14
  %24 = load ptr, ptr %4, align 8, !tbaa !32
  %25 = call i32 @load_file(ptr noundef %24, ptr noundef %5, ptr noundef %6)
  store i32 %25, ptr %7, align 4, !tbaa !10
  call void @llvm.lifetime.start.p0(i64 4, ptr %8) #14
  store i32 0, ptr %8, align 4, !tbaa !10
  br label %26

26:                                               ; preds = %23
  %27 = load i32, ptr %1, align 4, !tbaa !10
  %28 = icmp eq i32 %27, 1
  br i1 %28, label %38, label %29

29:                                               ; preds = %26
  %30 = load i32, ptr %1, align 4, !tbaa !10
  %31 = icmp eq i32 %30, 3
  br i1 %31, label %38, label %32

32:                                               ; preds = %29
  %33 = load i32, ptr %1, align 4, !tbaa !10
  %34 = icmp eq i32 %33, 2
  br i1 %34, label %38, label %35

35:                                               ; preds = %32
  %36 = load i32, ptr %1, align 4, !tbaa !10
  %37 = icmp eq i32 %36, 4
  br i1 %37, label %38, label %75

38:                                               ; preds = %35, %32, %29, %26
  %39 = load i32, ptr %7, align 4, !tbaa !10
  %40 = load i32, ptr %8, align 4, !tbaa !10
  %41 = icmp eq i32 %39, %40
  br i1 %41, label %68, label %42

42:                                               ; preds = %38
  br label %43

43:                                               ; preds = %42
  %44 = load i32, ptr %1, align 4, !tbaa !10
  %45 = icmp eq i32 %44, 2
  br i1 %45, label %49, label %46

46:                                               ; preds = %43
  %47 = load i32, ptr %1, align 4, !tbaa !10
  %48 = icmp eq i32 %47, 4
  br i1 %48, label %49, label %51

49:                                               ; preds = %46, %43
  %50 = load i32, ptr %2, align 4, !tbaa !10
  store i32 %50, ptr %1, align 4, !tbaa !10
  br label %65

51:                                               ; preds = %46
  %52 = call i32 (ptr, ...) @printf(ptr noundef @.str, ptr noundef @.str.1, i32 noundef 78881)
  %53 = load ptr, ptr @stdout, align 8, !tbaa !22
  %54 = call i32 @fputs(ptr noundef @.str.2, ptr noundef %53)
  %55 = call i32 (ptr, ...) @printf(ptr noundef @.str.3, ptr noundef @.str.1807, ptr noundef @.str.1024)
  %56 = load ptr, ptr @stdout, align 8, !tbaa !22
  %57 = call i32 @fputs(ptr noundef @.str.6, ptr noundef %56)
  %58 = load i32, ptr %7, align 4, !tbaa !10
  %59 = load i32, ptr %8, align 4, !tbaa !10
  %60 = call i32 (ptr, ...) @printf(ptr noundef @.str.7, i32 noundef %58, i32 noundef %59)
  %61 = load ptr, ptr @stdout, align 8, !tbaa !22
  %62 = call i32 @fputs(ptr noundef @.str.8, ptr noundef %61)
  %63 = load ptr, ptr @stdout, align 8, !tbaa !22
  %64 = call i32 @fflush(ptr noundef %63)
  store i32 0, ptr %1, align 4, !tbaa !10
  br label %65

65:                                               ; preds = %51, %49
  br label %66

66:                                               ; preds = %65
  br label %67

67:                                               ; preds = %66
  br label %74

68:                                               ; preds = %38
  %69 = load i32, ptr %1, align 4, !tbaa !10
  %70 = icmp eq i32 %69, 4
  br i1 %70, label %71, label %72

71:                                               ; preds = %68
  store i32 2, ptr %1, align 4, !tbaa !10
  br label %73

72:                                               ; preds = %68
  store i32 1, ptr %1, align 4, !tbaa !10
  br label %73

73:                                               ; preds = %72, %71
  br label %74

74:                                               ; preds = %73, %67
  br label %75

75:                                               ; preds = %74, %35
  %76 = load i32, ptr %1, align 4, !tbaa !10
  %77 = icmp eq i32 %76, 2
  br i1 %77, label %78, label %81

78:                                               ; preds = %75
  %79 = load i32, ptr %2, align 4, !tbaa !10
  %80 = add nsw i32 %79, -1
  store i32 %80, ptr %2, align 4, !tbaa !10
  br label %81

81:                                               ; preds = %78, %75
  br label %82

82:                                               ; preds = %81
  br label %83

83:                                               ; preds = %82
  call void @llvm.lifetime.end.p0(i64 4, ptr %8) #14
  call void @llvm.lifetime.end.p0(i64 4, ptr %7) #14
  br label %84

84:                                               ; preds = %83, %20
  br label %85

85:                                               ; preds = %84
  br label %86

86:                                               ; preds = %85
  %87 = load ptr, ptr %5, align 8, !tbaa !32
  %88 = icmp ne ptr %87, null
  br i1 %88, label %89, label %183

89:                                               ; preds = %86
  %90 = load i64, ptr %6, align 8, !tbaa !72
  %91 = icmp ugt i64 %90, 0
  br i1 %91, label %92, label %183

92:                                               ; preds = %89
  %93 = load ptr, ptr %5, align 8, !tbaa !32
  %94 = load i64, ptr %6, align 8, !tbaa !72
  %95 = sub i64 %94, 1
  %96 = getelementptr inbounds nuw i8, ptr %93, i64 %95
  %97 = load i8, ptr %96, align 1, !tbaa !58
  %98 = zext i8 %97 to i32
  %99 = xor i32 %98, -1
  %100 = trunc i32 %99 to i8
  %101 = load ptr, ptr %5, align 8, !tbaa !32
  %102 = load i64, ptr %6, align 8, !tbaa !72
  %103 = sub i64 %102, 1
  %104 = getelementptr inbounds nuw i8, ptr %101, i64 %103
  store i8 %100, ptr %104, align 1, !tbaa !58
  br label %105

105:                                              ; preds = %92
  %106 = load i32, ptr %1, align 4, !tbaa !10
  %107 = icmp eq i32 %106, 1
  br i1 %107, label %117, label %108

108:                                              ; preds = %105
  %109 = load i32, ptr %1, align 4, !tbaa !10
  %110 = icmp eq i32 %109, 3
  br i1 %110, label %117, label %111

111:                                              ; preds = %108
  %112 = load i32, ptr %1, align 4, !tbaa !10
  %113 = icmp eq i32 %112, 2
  br i1 %113, label %117, label %114

114:                                              ; preds = %111
  %115 = load i32, ptr %1, align 4, !tbaa !10
  %116 = icmp eq i32 %115, 4
  br i1 %116, label %117, label %180

117:                                              ; preds = %114, %111, %108, %105
  call void @llvm.lifetime.start.p0(i64 4, ptr %9) #14
  %118 = load ptr, ptr %3, align 8, !tbaa !32
  %119 = load ptr, ptr %5, align 8, !tbaa !32
  %120 = load i64, ptr %6, align 8, !tbaa !72
  %121 = call i32 @verify_sig_cm(ptr noundef %118, ptr noundef %119, i64 noundef %120, i32 noundef 2)
  store i32 %121, ptr %9, align 4, !tbaa !10
  call void @llvm.lifetime.start.p0(i64 4, ptr %10) #14
  store i32 -155, ptr %10, align 4, !tbaa !10
  br label %122

122:                                              ; preds = %117
  %123 = load i32, ptr %1, align 4, !tbaa !10
  %124 = icmp eq i32 %123, 1
  br i1 %124, label %134, label %125

125:                                              ; preds = %122
  %126 = load i32, ptr %1, align 4, !tbaa !10
  %127 = icmp eq i32 %126, 3
  br i1 %127, label %134, label %128

128:                                              ; preds = %125
  %129 = load i32, ptr %1, align 4, !tbaa !10
  %130 = icmp eq i32 %129, 2
  br i1 %130, label %134, label %131

131:                                              ; preds = %128
  %132 = load i32, ptr %1, align 4, !tbaa !10
  %133 = icmp eq i32 %132, 4
  br i1 %133, label %134, label %171

134:                                              ; preds = %131, %128, %125, %122
  %135 = load i32, ptr %9, align 4, !tbaa !10
  %136 = load i32, ptr %10, align 4, !tbaa !10
  %137 = icmp eq i32 %135, %136
  br i1 %137, label %164, label %138

138:                                              ; preds = %134
  br label %139

139:                                              ; preds = %138
  %140 = load i32, ptr %1, align 4, !tbaa !10
  %141 = icmp eq i32 %140, 2
  br i1 %141, label %145, label %142

142:                                              ; preds = %139
  %143 = load i32, ptr %1, align 4, !tbaa !10
  %144 = icmp eq i32 %143, 4
  br i1 %144, label %145, label %147

145:                                              ; preds = %142, %139
  %146 = load i32, ptr %2, align 4, !tbaa !10
  store i32 %146, ptr %1, align 4, !tbaa !10
  br label %161

147:                                              ; preds = %142
  %148 = call i32 (ptr, ...) @printf(ptr noundef @.str, ptr noundef @.str.1, i32 noundef 78896)
  %149 = load ptr, ptr @stdout, align 8, !tbaa !22
  %150 = call i32 @fputs(ptr noundef @.str.2, ptr noundef %149)
  %151 = call i32 (ptr, ...) @printf(ptr noundef @.str.3, ptr noundef @.str.1808, ptr noundef @.str.1809)
  %152 = load ptr, ptr @stdout, align 8, !tbaa !22
  %153 = call i32 @fputs(ptr noundef @.str.6, ptr noundef %152)
  %154 = load i32, ptr %9, align 4, !tbaa !10
  %155 = load i32, ptr %10, align 4, !tbaa !10
  %156 = call i32 (ptr, ...) @printf(ptr noundef @.str.7, i32 noundef %154, i32 noundef %155)
  %157 = load ptr, ptr @stdout, align 8, !tbaa !22
  %158 = call i32 @fputs(ptr noundef @.str.8, ptr noundef %157)
  %159 = load ptr, ptr @stdout, align 8, !tbaa !22
  %160 = call i32 @fflush(ptr noundef %159)
  store i32 0, ptr %1, align 4, !tbaa !10
  br label %161

161:                                              ; preds = %147, %145
  br label %162

162:                                              ; preds = %161
  br label %163

163:                                              ; preds = %162
  br label %170

164:                                              ; preds = %134
  %165 = load i32, ptr %1, align 4, !tbaa !10
  %166 = icmp eq i32 %165, 4
  br i1 %166, label %167, label %168

167:                                              ; preds = %164
  store i32 2, ptr %1, align 4, !tbaa !10
  br label %169

168:                                              ; preds = %164
  store i32 1, ptr %1, align 4, !tbaa !10
  br label %169

169:                                              ; preds = %168, %167
  br label %170

170:                                              ; preds = %169, %163
  br label %171

171:                                              ; preds = %170, %131
  %172 = load i32, ptr %1, align 4, !tbaa !10
  %173 = icmp eq i32 %172, 2
  br i1 %173, label %174, label %177

174:                                              ; preds = %171
  %175 = load i32, ptr %2, align 4, !tbaa !10
  %176 = add nsw i32 %175, -1
  store i32 %176, ptr %2, align 4, !tbaa !10
  br label %177

177:                                              ; preds = %174, %171
  br label %178

178:                                              ; preds = %177
  br label %179

179:                                              ; preds = %178
  call void @llvm.lifetime.end.p0(i64 4, ptr %10) #14
  call void @llvm.lifetime.end.p0(i64 4, ptr %9) #14
  br label %180

180:                                              ; preds = %179, %114
  br label %181

181:                                              ; preds = %180
  br label %182

182:                                              ; preds = %181
  br label %183

183:                                              ; preds = %182, %89, %86
  %184 = load ptr, ptr %5, align 8, !tbaa !32
  %185 = icmp ne ptr %184, null
  br i1 %185, label %186, label %188

186:                                              ; preds = %183
  %187 = load ptr, ptr %5, align 8, !tbaa !32
  call void @free(ptr noundef %187) #14
  br label %188

188:                                              ; preds = %186, %183
  %189 = load i32, ptr %1, align 4, !tbaa !10
  %190 = icmp eq i32 %189, 2
  br i1 %190, label %191, label %192

191:                                              ; preds = %188
  br label %200

192:                                              ; preds = %188
  %193 = load i32, ptr %1, align 4, !tbaa !10
  %194 = icmp eq i32 %193, 4
  br i1 %194, label %195, label %196

195:                                              ; preds = %192
  br label %198

196:                                              ; preds = %192
  %197 = load i32, ptr %1, align 4, !tbaa !10
  br label %198

198:                                              ; preds = %196, %195
  %199 = phi i32 [ 3, %195 ], [ %197, %196 ]
  br label %200

200:                                              ; preds = %198, %191
  %201 = phi i32 [ 1, %191 ], [ %199, %198 ]
  call void @llvm.lifetime.end.p0(i64 8, ptr %6) #14
  call void @llvm.lifetime.end.p0(i64 8, ptr %5) #14
  call void @llvm.lifetime.end.p0(i64 8, ptr %4) #14
  call void @llvm.lifetime.end.p0(i64 8, ptr %3) #14
  call void @llvm.lifetime.end.p0(i64 4, ptr %2) #14
  call void @llvm.lifetime.end.p0(i64 4, ptr %1) #14
  ret i32 %201
}