; Function Attrs: nounwind uwtable
define internal range(i32 0, 2) i32 @test_EccSigFailure_cm() #0 {
  %1 = alloca ptr, align 8
  %2 = alloca i64, align 8
  call void @llvm.lifetime.start.p0(i64 8, ptr nonnull %1) #27
  store ptr null, ptr %1, align 8, !tbaa !83
  call void @llvm.lifetime.start.p0(i64 8, ptr nonnull %2) #27
  store i64 0, ptr %2, align 8, !tbaa !56
  %3 = call fastcc i32 @load_file(ptr noundef nonnull @.str.1806, ptr noundef %1, ptr noundef %2)
  %4 = icmp eq i32 %3, 0
  br i1 %4, label %17, label %5

5:                                                ; preds = %0
  %6 = tail call i32 (ptr, ...) @printf(ptr noundef nonnull dereferenceable(1) @.str, ptr noundef nonnull @.str.1, i32 noundef 78881)
  %7 = load ptr, ptr @stdout, align 8, !tbaa !22
  %8 = tail call i64 @fwrite(ptr nonnull @.str.2, i64 15, i64 1, ptr %7)
  %9 = tail call i32 (ptr, ...) @printf(ptr noundef nonnull dereferenceable(1) @.str.3, ptr noundef nonnull @.str.1807, ptr noundef nonnull @.str.1024)
  %10 = load ptr, ptr @stdout, align 8, !tbaa !22
  %11 = tail call i64 @fwrite(ptr nonnull @.str.6, i64 15, i64 1, ptr %10)
  %12 = tail call i32 (ptr, ...) @printf(ptr noundef nonnull dereferenceable(1) @.str.7, i32 noundef %3, i32 noundef 0)
  %13 = load ptr, ptr @stdout, align 8, !tbaa !22
  %14 = tail call i64 @fwrite(ptr nonnull @.str.8, i64 2, i64 1, ptr %13)
  %15 = load ptr, ptr @stdout, align 8, !tbaa !22
  %16 = tail call i32 @fflush(ptr noundef %15)
  br label %17

17:                                               ; preds = %0, %5
  %.0 = phi i32 [ 0, %5 ], [ 1, %0 ]
  %18 = load ptr, ptr %1, align 8, !tbaa !83
  %19 = icmp ne ptr %18, null
  %20 = load i64, ptr %2, align 8
  %21 = icmp ne i64 %20, 0
  %or.cond15 = select i1 %19, i1 %21, i1 false
  br i1 %or.cond15, label %22, label %42

22:                                               ; preds = %17
  %23 = getelementptr i8, ptr %18, i64 %20
  %24 = getelementptr i8, ptr %23, i64 -1
  %25 = load i8, ptr %24, align 1, !tbaa !39
  %26 = xor i8 %25, -1
  store i8 %26, ptr %24, align 1, !tbaa !39
  br i1 %4, label %27, label %.thread

27:                                               ; preds = %22
  %28 = tail call fastcc i32 @verify_sig_cm(ptr noundef nonnull @.str.1805, ptr noundef nonnull %18, i64 noundef %20)
  %29 = icmp eq i32 %28, -155
  br i1 %29, label %.thread, label %30

30:                                               ; preds = %27
  %31 = tail call i32 (ptr, ...) @printf(ptr noundef nonnull dereferenceable(1) @.str, ptr noundef nonnull @.str.1, i32 noundef 78896)
  %32 = load ptr, ptr @stdout, align 8, !tbaa !22
  %33 = tail call i64 @fwrite(ptr nonnull @.str.2, i64 15, i64 1, ptr %32)
  %34 = tail call i32 (ptr, ...) @printf(ptr noundef nonnull dereferenceable(1) @.str.3, ptr noundef nonnull @.str.1808, ptr noundef nonnull @.str.1809)
  %35 = load ptr, ptr @stdout, align 8, !tbaa !22
  %36 = tail call i64 @fwrite(ptr nonnull @.str.6, i64 15, i64 1, ptr %35)
  %37 = tail call i32 (ptr, ...) @printf(ptr noundef nonnull dereferenceable(1) @.str.7, i32 noundef %28, i32 noundef -155)
  %38 = load ptr, ptr @stdout, align 8, !tbaa !22
  %39 = tail call i64 @fwrite(ptr nonnull @.str.8, i64 2, i64 1, ptr %38)
  %40 = load ptr, ptr @stdout, align 8, !tbaa !22
  %41 = tail call i32 @fflush(ptr noundef %40)
  br label %.thread

42:                                               ; preds = %17
  %.not = icmp eq ptr %18, null
  br i1 %.not, label %43, label %.thread

.thread:                                          ; preds = %22, %30, %27, %42
  %.278 = phi i32 [ %.0, %42 ], [ 1, %27 ], [ 0, %30 ], [ %.0, %22 ]
  tail call void @free(ptr noundef nonnull %18) #27
  br label %43

43:                                               ; preds = %.thread, %42
  %.279 = phi i32 [ %.278, %.thread ], [ %.0, %42 ]
  call void @llvm.lifetime.end.p0(i64 8, ptr nonnull %2) #27
  call void @llvm.lifetime.end.p0(i64 8, ptr nonnull %1) #27
  ret i32 %.279
}